; Function Attrs: nounwind sspstrong uwtable
define internal i64 @ossl_ocspsres_get_revocation_time(i64 noundef %0) #0 {
  %2 = alloca ptr, align 8
  call void @llvm.lifetime.start.p0(i64 8, ptr nonnull %2) #5
  %3 = tail call ptr @rb_check_typeddata(i64 noundef %0, ptr noundef nonnull @ossl_ocsp_singleresp_type) #5
  %.not = icmp eq ptr %3, null
  br i1 %.not, label %4, label %6

4:                                                ; preds = %1
  %5 = load i64, ptr @rb_eRuntimeError, align 8, !tbaa !6
  tail call void (i64, ptr, ...) @ossl_raise(i64 noundef %5, ptr noundef nonnull @.str.87) #6
  unreachable

6:                                                ; preds = %1
  %7 = call i32 @OCSP_single_get0_status(ptr noundef nonnull %3, ptr noundef null, ptr noundef nonnull %2, ptr noundef null, ptr noundef null) #5
  %8 = icmp slt i32 %7, 0
  br i1 %8, label %9, label %11

9:                                                ; preds = %6
  %10 = load i64, ptr @eOCSPError, align 8, !tbaa !6
  call void (i64, ptr, ...) @ossl_raise(i64 noundef %10, ptr noundef nonnull @.str.91) #6
  unreachable

11:                                               ; preds = %6
  %.not8 = icmp eq i32 %7, 1
  br i1 %.not8, label %14, label %12

12:                                               ; preds = %11
  %13 = load i64, ptr @eOCSPError, align 8, !tbaa !6
  call void (i64, ptr, ...) @ossl_raise(i64 noundef %13, ptr noundef nonnull @.str.92) #6
  unreachable

14:                                               ; preds = %11
  %15 = load ptr, ptr %2, align 8, !tbaa !62
  %.not9 = icmp eq ptr %15, null
  br i1 %.not9, label %18, label %16

16:                                               ; preds = %14
  %17 = call i64 @asn1time_to_time(ptr noundef nonnull %15) #5
  br label %18

18:                                               ; preds = %14, %16
  %.0 = phi i64 [ %17, %16 ], [ 4, %14 ]
  call void @llvm.lifetime.end.p0(i64 8, ptr nonnull %2) #5
  ret i64 %.0
}